Certificate:
    Data:
        Version: 3 (0x2)
        Serial Number:
            81:33:7e:86:11:35:29:cc:2e:ce:77:41:18:87:bc:cf
        Signature Algorithm: sha256WithRSAEncryption
        Issuer: CN=ChangeMe
        Validity
            Not Before: Mar 15 19:00:08 2021 GMT
            Not After : Jun 18 19:00:08 2023 GMT
        Subject: CN=client
        Subject Public Key Info:
            Public Key Algorithm: rsaEncryption
                RSA Public-Key: (2048 bit)
                Modulus:
                    00:92:bd:0a:31:34:ce:98:eb:18:ab:27:f6:3e:2d:
                    28:bf:b0:9c:c8:ef:af:24:92:c3:61:39:df:35:c5:
                    29:0f:20:17:81:ce:53:ae:d3:89:8a:e4:56:78:7a:
                    f0:aa:a9:f3:73:86:e9:ed:fb:27:29:75:08:e6:35:
                    c6:e4:0d:35:20:8f:50:9f:bd:b8:a1:32:36:dd:b5:
                    7c:e3:9a:35:98:1e:d2:70:98:55:ba:3e:ec:bf:a5:
                    65:49:30:90:f4:0e:43:c2:c4:1a:42:86:91:62:33:
                    62:4b:87:c1:3b:76:d7:17:9e:8f:32:fc:c8:ba:a6:
                    8d:38:66:2e:0f:94:f0:7f:57:23:28:c0:b4:13:d5:
                    02:d5:39:cb:04:53:8e:59:2a:a3:b6:98:ea:b4:a2:
                    e3:e5:d0:48:9f:6e:f0:04:4f:11:f5:ff:6e:68:45:
                    8e:fd:bc:a3:11:fd:a3:cf:3e:c7:2e:1c:97:24:5f:
                    75:ae:b3:35:80:bd:a0:32:c2:36:2b:1b:ff:64:8e:
                    ba:f4:81:60:0d:0b:87:4e:b6:6e:a9:f1:f9:1b:11:
                    c7:54:cd:89:c9:d9:28:3d:b0:98:d8:5c:d4:cd:d6:
                    f1:f3:33:fb:7b:a4:a9:d4:8e:3d:ff:78:58:bc:33:
                    46:e9:76:e1:d3:ba:e8:a5:ea:5e:25:ef:91:23:5b:
                    4a:1b
                Exponent: 65537 (0x10001)
        X509v3 extensions:
            X509v3 Basic Constraints: 
                CA:FALSE
            X509v3 Subject Key Identifier: 
                3C:F6:52:8F:96:1A:B2:00:EE:95:27:FF:89:0D:56:C8:29:6A:99:41
            X509v3 Authority Key Identifier: 
                keyid:90:6F:33:46:EF:FA:94:76:9D:93:2C:CA:72:E1:1B:A2:59:00:5C:5F
                DirName:/CN=ChangeMe
                serial:54:57:22:8A:A4:6C:9C:2F:CB:D0:BB:1B:20:83:D0:AB:EB:44:81:9B

            X509v3 Extended Key Usage: 
                TLS Web Client Authentication
            X509v3 Key Usage: 
                Digital Signature
    Signature Algorithm: sha256WithRSAEncryption
         14:28:d6:d1:c1:ab:79:72:b0:e6:8d:3e:53:d7:06:d7:5c:03:
         9e:39:66:97:bc:1f:0b:3f:56:27:83:63:cd:63:65:e0:07:b2:
         8e:bd:56:11:08:ce:d7:79:0b:00:fe:fa:98:4b:77:d2:f9:c8:
         f8:cf:10:88:45:1a:3a:9e:97:7e:8b:88:04:93:94:b6:67:df:
         15:a9:e9:7c:c2:98:47:cb:df:7e:0c:72:84:93:df:eb:a1:36:
         34:30:65:55:f0:ba:c5:17:9c:cb:c3:24:b9:8b:b8:8a:1a:38:
         55:05:b3:a5:c6:3f:67:c4:fc:df:b6:1f:9f:5f:09:b9:51:3f:
         fd:1d:d9:df:ba:b3:59:4e:a6:86:23:26:04:a1:93:94:ee:a8:
         0e:db:2b:3f:c2:28:4f:d0:62:e3:d5:81:cc:db:4a:cd:52:7e:
         49:ed:b2:67:81:ee:21:d7:95:e3:b5:36:8a:35:26:75:49:8c:
         bf:0f:b9:bd:04:91:87:e2:28:71:7e:91:c5:11:0c:26:38:7b:
         72:90:32:8a:e3:c5:e0:8b:e6:60:9c:83:a0:b2:ad:05:08:c8:
         a9:42:03:19:aa:92:dd:a1:98:56:0f:fd:f7:18:99:1d:8c:5a:
         ce:bf:22:00:9a:68:c0:bb:99:1d:ae:56:ea:63:44:d3:8d:bf:
         f9:4e:60:5a
-----BEGIN CERTIFICATE-----
MIIDTzCCAjegAwIBAgIRAIEzfoYRNSnMLs53QRiHvM8wDQYJKoZIhvcNAQELBQAw
EzERMA8GA1UEAwwIQ2hhbmdlTWUwHhcNMjEwMzE1MTkwMDA4WhcNMjMwNjE4MTkw
MDA4WjARMQ8wDQYDVQQDDAZjbGllbnQwggEiMA0GCSqGSIb3DQEBAQUAA4IBDwAw
ggEKAoIBAQCSvQoxNM6Y6xirJ/Y+LSi/sJzI768kksNhOd81xSkPIBeBzlOu04mK
5FZ4evCqqfNzhunt+ycpdQjmNcbkDTUgj1CfvbihMjbdtXzjmjWYHtJwmFW6Puy/
pWVJMJD0DkPCxBpChpFiM2JLh8E7dtcXno8y/Mi6po04Zi4PlPB/VyMowLQT1QLV
OcsEU45ZKqO2mOq0ouPl0EifbvAETxH1/25oRY79vKMR/aPPPscuHJckX3WuszWA
vaAywjYrG/9kjrr0gWANC4dOtm6p8fkbEcdUzYnJ2Sg9sJjYXNTN1vHzM/t7pKnU
jj3/eFi8M0bpduHTuuil6l4l75EjW0obAgMBAAGjgZ8wgZwwCQYDVR0TBAIwADAd
BgNVHQ4EFgQUPPZSj5YasgDulSf/iQ1WyClqmUEwTgYDVR0jBEcwRYAUkG8zRu/6
lHadkyzKcuEbolkAXF+hF6QVMBMxETAPBgNVBAMMCENoYW5nZU1lghRUVyKKpGyc
L8vQuxsgg9Cr60SBmzATBgNVHSUEDDAKBggrBgEFBQcDAjALBgNVHQ8EBAMCB4Aw
DQYJKoZIhvcNAQELBQADggEBABQo1tHBq3lysOaNPlPXBtdcA545Zpe8Hws/VieD
Y81jZeAHso69VhEIztd5CwD++phLd9L5yPjPEIhFGjqel36LiASTlLZn3xWp6XzC
mEfL334McoST3+uhNjQwZVXwusUXnMvDJLmLuIoaOFUFs6XGP2fE/N+2H59fCblR
P/0d2d+6s1lOpoYjJgShk5TuqA7bKz/CKE/QYuPVgczbSs1SfkntsmeB7iHXleO1
Noo1JnVJjL8Pub0EkYfiKHF+kcURDCY4e3KQMorjxeCL5mCcg6CyrQUIyKlCAxmq
kt2hmFYP/fcYmR2MWs6/IgCaaMC7mR2uVupjRNONv/lOYFo=
-----END CERTIFICATE-----
